Certificate:
    Data:
        Version: 3 (0x2)
        Serial Number: 4097 (0x1001)
    Signature Algorithm: sha256WithRSAEncryption
        Issuer: C=CN, ST=Hubei, L=Wuhan, O=HUST, OU=YA, CN=YA/emailAddress=719001405@qq.com
        Validity
            Not Before: May 27 00:02:45 2021 GMT
            Not After : May 27 00:02:45 2022 GMT
        Subject: C=CN, ST=Hubei, O=HUST, OU=YA, CN=YA/emailAddress=719001405@qq.com
        Subject Public Key Info:
            Public Key Algorithm: rsaEncryption
                Public-Key: (1024 bit)
                Modulus:
                    00:ca:08:b4:a0:af:2f:42:e2:02:c5:12:48:65:9f:
                    2d:bf:16:66:52:50:17:ef:ae:10:54:cd:0e:34:41:
                    6b:cf:a6:34:89:40:c1:8f:9a:64:ad:8c:97:8a:d7:
                    69:c1:1f:91:f7:30:c6:bb:a9:18:21:aa:5e:eb:22:
                    c5:6a:46:6c:a4:f7:bc:b7:74:03:ff:22:0a:60:69:
                    82:81:f3:8f:43:45:be:7e:e4:d0:22:84:53:a8:30:
                    a0:ba:0f:ec:f5:fc:9e:41:f6:5d:c2:b9:d6:e9:f2:
                    80:7f:c2:e2:17:55:e1:d8:6e:49:8b:5b:95:b5:2f:
                    0d:be:44:a8:f2:62:73:cb:ad
                Exponent: 65537 (0x10001)
        X509v3 extensions:
            X509v3 Basic Constraints: 
                CA:FALSE
            Netscape Comment: 
                OpenSSL Generated Certificate
            X509v3 Subject Key Identifier: 
                AE:D5:E5:38:3F:57:78:F9:4F:9E:2B:E2:68:44:8B:2C:52:0B:B8:71
            X509v3 Authority Key Identifier: 
                keyid:56:BE:66:93:3F:05:70:C4:9B:9D:9A:99:AB:BE:82:F2:A2:1D:9B:A7

    Signature Algorithm: sha256WithRSAEncryption
         8b:4d:92:95:17:4a:d0:30:3f:41:85:fa:b5:e1:28:7c:af:67:
         9d:49:d3:96:09:00:ae:b6:ca:9f:08:e2:4d:fd:82:45:ed:fe:
         d8:ad:ac:a7:16:fb:c6:dc:cf:cb:bc:d2:ae:70:ed:2f:7c:eb:
         6b:5e:00:66:b6:f4:78:3c:a4:1f:de:82:94:e6:dc:98:b1:ac:
         16:bd:d7:d8:32:58:d2:b1:ca:ed:9f:ca:ea:6e:6b:0f:58:8b:
         ba:a9:fd:df:0b:1d:c9:e7:53:38:e5:d2:1d:fc:8c:1b:30:c7:
         0b:8e:b1:09:ee:53:a5:b2:19:15:ca:fd:86:90:f0:54:d8:f3:
         ec:89:ae:7d:26:af:81:6e:dd:35:38:d6:d6:29:7d:98:55:d9:
         ba:ee:e6:3d:73:f1:9e:89:7f:9c:24:de:03:ed:9d:b3:25:a3:
         30:35:e5:af:f9:db:f6:7b:2b:06:fc:bb:68:41:82:c5:8c:ed:
         74:da:21:48:76:32:48:e5:c4:b1:d8:b3:b8:52:38:a5:58:d7:
         ba:54:20:1d:d9:d8:29:06:2e:36:68:6f:d0:0b:56:db:95:de:
         d8:a6:83:1e:c4:e8:a1:72:4c:70:c6:3e:bd:30:b4:58:44:44:
         51:c4:a7:c3:5b:47:c0:ff:86:cf:2c:e5:a1:0d:47:8c:3d:42:
         bc:42:17:84
-----BEGIN CERTIFICATE-----
MIIDUTCCAjmgAwIBAgICEAEwDQYJKoZIhvcNAQELBQAwdzELMAkGA1UEBhMCQ04x
DjAMBgNVBAgMBUh1YmVpMQ4wDAYDVQQHDAVXdWhhbjENMAsGA1UECgwESFVTVDEL
MAkGA1UECwwCWUExCzAJBgNVBAMMAllBMR8wHQYJKoZIhvcNAQkBFhA3MTkwMDE0
MDVAcXEuY29tMB4XDTIxMDUyNzAwMDI0NVoXDTIyMDUyNzAwMDI0NVowZzELMAkG
A1UEBhMCQ04xDjAMBgNVBAgMBUh1YmVpMQ0wCwYDVQQKDARIVVNUMQswCQYDVQQL
DAJZQTELMAkGA1UEAwwCWUExHzAdBgkqhkiG9w0BCQEWEDcxOTAwMTQwNUBxcS5j
b20wgZ8wDQYJKoZIhvcNAQEBBQADgY0AMIGJAoGBAMoItKCvL0LiAsUSSGWfLb8W
ZlJQF++uEFTNDjRBa8+mNIlAwY+aZK2Ml4rXacEfkfcwxrupGCGqXusixWpGbKT3
vLd0A/8iCmBpgoHzj0NFvn7k0CKEU6gwoLoP7PX8nkH2XcK51unygH/C4hdV4dhu
SYtblbUvDb5EqPJic8utAgMBAAGjezB5MAkGA1UdEwQCMAAwLAYJYIZIAYb4QgEN
BB8WHU9wZW5TU0wgR2VuZXJhdGVkIENlcnRpZmljYXRlMB0GA1UdDgQWBBSu1eU4
P1d4+U+eK+JoRIssUgu4cTAfBgNVHSMEGDAWgBRWvmaTPwVwxJudmpmrvoLyoh2b
pzANBgkqhkiG9w0BAQsFAAOCAQEAi02SlRdK0DA/QYX6teEofK9nnUnTlgkArrbK
nwjiTf2CRe3+2K2spxb7xtzPy7zSrnDtL3zra14AZrb0eDykH96ClObcmLGsFr3X
2DJY0rHK7Z/K6m5rD1iLuqn93wsdyedTOOXSHfyMGzDHC46xCe5TpbIZFcr9hpDw
VNjz7ImufSavgW7dNTjW1il9mFXZuu7mPXPxnol/nCTeA+2dsyWjMDXlr/nb9nsr
Bvy7aEGCxYztdNohSHYySOXEsdizuFI4pVjXulQgHdnYKQYuNmhv0AtW25Xe2KaD
HsTooXJMcMY+vTC0WEREUcSnw1tHwP+GzyzloQ1HjD1CvEIXhA==
-----END CERTIFICATE-----
