Certificate:
    Data:
        Version: 3 (0x2)
        Serial Number: 4096 (0x1000)
    Signature Algorithm: sha256WithRSAEncryption
        Issuer: C=CN, ST=Hubei, L=Wuhan, O=HUST, OU=YA, CN=YA/emailAddress=719001405@qq.com
        Validity
            Not Before: May 26 23:51:22 2021 GMT
            Not After : May 26 23:51:22 2022 GMT
        Subject: C=CN, ST=Hubei, O=HUST, OU=YA, CN=YA/emailAddress=719001405@qq.com
        Subject Public Key Info:
            Public Key Algorithm: rsaEncryption
                Public-Key: (1024 bit)
                Modulus:
                    00:d9:64:d7:bf:ed:d0:c7:90:a2:56:32:fa:51:73:
                    ee:22:9f:20:b4:9f:17:f5:12:52:f7:79:06:6f:0c:
                    5e:26:92:ac:c6:4c:17:be:4f:2a:f0:5a:13:d1:53:
                    90:d4:6d:cf:37:97:cd:22:56:20:3d:02:67:3d:6a:
                    a4:d5:cf:8c:39:d4:26:42:44:6d:4c:b1:0b:8e:74:
                    7d:79:3e:65:0d:04:e8:23:52:73:17:a8:88:67:03:
                    73:69:07:ab:ab:c8:fa:ee:94:76:00:e0:ff:41:a8:
                    14:ae:e5:08:a4:15:7e:e2:18:e8:be:e9:2e:cf:8a:
                    90:c4:2e:ba:d3:e2:96:5f:15
                Exponent: 65537 (0x10001)
        X509v3 extensions:
            X509v3 Basic Constraints: 
                CA:FALSE
            Netscape Comment: 
                OpenSSL Generated Certificate
            X509v3 Subject Key Identifier: 
                99:15:19:40:0C:95:D3:68:67:42:83:C2:D2:B8:9D:BE:CD:8F:65:F4
            X509v3 Authority Key Identifier: 
                keyid:56:BE:66:93:3F:05:70:C4:9B:9D:9A:99:AB:BE:82:F2:A2:1D:9B:A7

    Signature Algorithm: sha256WithRSAEncryption
         9a:2d:99:d7:4b:7e:ce:c9:fc:15:52:ab:f6:0a:f9:6e:8f:8c:
         60:51:cc:2a:e4:4d:00:d8:61:54:ab:15:9e:7e:b7:88:1b:1e:
         85:02:8b:a3:98:5d:b8:49:33:bc:d0:09:f2:d2:fa:94:9f:a9:
         ad:33:85:f1:3c:eb:e9:cc:ff:2b:4e:c7:bc:7f:62:9a:26:c3:
         f6:77:ee:31:18:fd:28:bf:d2:b1:77:7f:a1:30:73:ad:7e:88:
         ab:b2:83:7a:6e:d0:7c:4d:8a:72:88:11:a4:e0:ea:e0:f1:5a:
         27:f5:c9:a3:82:17:49:7e:1a:58:a7:ca:60:27:91:c2:c8:41:
         3e:36:a9:eb:22:e9:a3:14:f7:2f:07:1e:1d:95:86:1d:a5:d5:
         a7:4d:39:6d:c6:31:57:38:06:00:c8:4a:fc:14:92:c7:c7:f6:
         8e:d0:dc:71:c5:14:b2:22:09:4f:61:44:51:6e:0f:c1:7a:13:
         5a:48:28:af:78:71:65:eb:41:65:ac:19:6b:be:58:d5:b2:62:
         2d:28:d7:5e:0d:42:6c:b2:b5:07:5b:2c:3e:60:60:14:62:75:
         8a:e1:e1:b0:4b:b9:d4:66:b6:77:0c:2c:2c:2d:1b:39:7d:d8:
         fa:28:16:6b:15:f6:68:cd:3f:16:2f:11:7f:6b:6b:86:50:55:
         d3:0a:5d:13
-----BEGIN CERTIFICATE-----
MIIDUTCCAjmgAwIBAgICEAAwDQYJKoZIhvcNAQELBQAwdzELMAkGA1UEBhMCQ04x
DjAMBgNVBAgMBUh1YmVpMQ4wDAYDVQQHDAVXdWhhbjENMAsGA1UECgwESFVTVDEL
MAkGA1UECwwCWUExCzAJBgNVBAMMAllBMR8wHQYJKoZIhvcNAQkBFhA3MTkwMDE0
MDVAcXEuY29tMB4XDTIxMDUyNjIzNTEyMloXDTIyMDUyNjIzNTEyMlowZzELMAkG
A1UEBhMCQ04xDjAMBgNVBAgMBUh1YmVpMQ0wCwYDVQQKDARIVVNUMQswCQYDVQQL
DAJZQTELMAkGA1UEAwwCWUExHzAdBgkqhkiG9w0BCQEWEDcxOTAwMTQwNUBxcS5j
b20wgZ8wDQYJKoZIhvcNAQEBBQADgY0AMIGJAoGBANlk17/t0MeQolYy+lFz7iKf
ILSfF/USUvd5Bm8MXiaSrMZMF75PKvBaE9FTkNRtzzeXzSJWID0CZz1qpNXPjDnU
JkJEbUyxC450fXk+ZQ0E6CNScxeoiGcDc2kHq6vI+u6UdgDg/0GoFK7lCKQVfuIY
6L7pLs+KkMQuutPill8VAgMBAAGjezB5MAkGA1UdEwQCMAAwLAYJYIZIAYb4QgEN
BB8WHU9wZW5TU0wgR2VuZXJhdGVkIENlcnRpZmljYXRlMB0GA1UdDgQWBBSZFRlA
DJXTaGdCg8LSuJ2+zY9l9DAfBgNVHSMEGDAWgBRWvmaTPwVwxJudmpmrvoLyoh2b
pzANBgkqhkiG9w0BAQsFAAOCAQEAmi2Z10t+zsn8FVKr9gr5bo+MYFHMKuRNANhh
VKsVnn63iBsehQKLo5hduEkzvNAJ8tL6lJ+prTOF8Tzr6cz/K07HvH9imibD9nfu
MRj9KL/SsXd/oTBzrX6Iq7KDem7QfE2KcogRpODq4PFaJ/XJo4IXSX4aWKfKYCeR
wshBPjap6yLpoxT3LwceHZWGHaXVp005bcYxVzgGAMhK/BSSx8f2jtDcccUUsiIJ
T2FEUW4PwXoTWkgor3hxZetBZawZa75Y1bJiLSjXXg1CbLK1B1ssPmBgFGJ1iuHh
sEu51Ga2dwwsLC0bOX3Y+igWaxX2aM0/Fi8Rf2trhlBV0wpdEw==
-----END CERTIFICATE-----
